; ModuleID = 'bench/spike/original/f32_to_ui64_r_minMag.ll'
source_filename = "bench/spike/original/f32_to_ui64_r_minMag.ll"
target datalayout = "e-m:e-p270:32:32-p271:32:32-p272:64:64-i64:64-i128:128-f80:128-n8:16:32:64-S128"
target triple = "x86_64-pc-linux-gnu"

@softfloat_exceptionFlags = external thread_local local_unnamed_addr global i8, align 1

; Function Attrs: nounwind uwtable
define range(i64 -1, -1099511627775) i64 @f32_to_ui64_r_minMag(i32 %0, i1 noundef zeroext %1) local_unnamed_addr #0 {
  %3 = zext i32 %0 to i64
  %4 = lshr i64 %3, 23
  %5 = and i64 %4, 255
  %6 = and i64 %3, 8388607
  %7 = sub nsw i64 190, %5
  %8 = icmp samesign ult i64 %5, 127
  br i1 %8, label %9, label %15

9:                                                ; preds = %2
  %10 = or i64 %5, %6
  %.not32 = icmp ne i64 %10, 0
  %or.cond34.not = and i1 %1, %.not32
  br i1 %or.cond34.not, label %11, label %36

11:                                               ; preds = %9
  %12 = tail call align 1 ptr @llvm.threadlocal.address.p0(ptr align 1 @softfloat_exceptionFlags)
  %13 = load i8, ptr %12, align 1, !tbaa !3
  %14 = or i8 %13, 1
  store i8 %14, ptr %12, align 1, !tbaa !3
  br label %36

15:                                               ; preds = %2
  %16 = icmp slt i32 %0, 0
  %17 = icmp samesign ugt i64 %5, 190
  %or.cond = select i1 %16, i1 true, i1 %17
  br i1 %or.cond, label %18, label %22

18:                                               ; preds = %15
  tail call void @softfloat_raiseFlags(i8 noundef zeroext 16) #3
  %19 = icmp eq i64 %5, 255
  %20 = icmp ne i64 %6, 0
  %or.cond3 = and i1 %20, %19
  %not. = xor i1 %16, true
  %narrow = or i1 %or.cond3, %not.
  %21 = sext i1 %narrow to i64
  br label %36

22:                                               ; preds = %15
  %23 = or disjoint i64 %6, 8388608
  %24 = shl nuw i64 %23, 40
  %25 = lshr i64 %24, %7
  %26 = icmp samesign ult i64 %5, 150
  %or.cond5 = select i1 %1, i1 %26, i1 false
  br i1 %or.cond5, label %27, label %36

27:                                               ; preds = %22
  %28 = add nuw nsw i64 %4, 10
  %29 = and i64 %28, 31
  %30 = lshr i64 4294967295, %29
  %31 = and i64 %30, %23
  %.not = icmp eq i64 %31, 0
  br i1 %.not, label %36, label %32

32:                                               ; preds = %27
  %33 = tail call align 1 ptr @llvm.threadlocal.address.p0(ptr align 1 @softfloat_exceptionFlags)
  %34 = load i8, ptr %33, align 1, !tbaa !3
  %35 = or i8 %34, 1
  store i8 %35, ptr %33, align 1, !tbaa !3
  br label %36

36:                                               ; preds = %22, %27, %32, %9, %11, %18
  %.0 = phi i64 [ %21, %18 ], [ 0, %11 ], [ 0, %9 ], [ %25, %32 ], [ %25, %27 ], [ %25, %22 ]
  ret i64 %.0
}

; Function Attrs: mustprogress nocallback nofree nosync nounwind speculatable willreturn memory(none)
declare nonnull ptr @llvm.threadlocal.address.p0(ptr nonnull) #1

declare void @softfloat_raiseFlags(i8 noundef zeroext) local_unnamed_addr #2


!llvm.module.flags = !{!0, !1, !2}

!0 = !{i32 1, !"wchar_size", i32 4}
!1 = !{i32 8, !"PIC Level", i32 2}
!2 = !{i32 7, !"uwtable", i32 2}
!3 = !{!4, !4, i64 0}
!4 = !{!"omnipotent char", !5, i64 0}
!5 = !{!"Simple C/C++ TBAA"}
